target datalayout = "e-m:e-p270:32:32-p271:32:32-p272:64:64-i64:64-i128:128-f80:128-n8:16:32:64-S128"
target triple = "x86_64-pc-linux-gnu"

%struct.Node = type { i32 }
%struct.Expr = type { i32 }
%union.ListCell = type { ptr }
%struct.FormData_pg_proc = type { i32, %struct.nameData, i32, i32, i32, float, float, i32, i32, i8, i8, i8, i8, i8, i8, i8, i16, i16, i32, %struct.oidvector }
%struct.nameData = type { [64 x i8] }
%struct.oidvector = type { i32, i32, i32, i32, i32, i32, [0 x i32] }
%struct.FuncExpr = type { %struct.Expr, i32, i32, i8, i8, i32, i32, i32, ptr, i32 }
%struct.CaseTestExpr = type { %struct.Expr, i32, i32, i32 }
%struct.ArrayCoerceExpr = type { %struct.Expr, ptr, ptr, i32, i32, i32, i32, i32 }
%struct.CoerceViaIO = type { %struct.Expr, ptr, i32, i32, i32, i32 }
%struct.HeapTupleData = type { i32, %struct.ItemPointerData, i32, ptr }
%struct.ItemPointerData = type { %struct.BlockIdData, i16 }
%struct.BlockIdData = type { i16, i16 }
%struct.HeapTupleHeaderData = type { %union.anon, %struct.ItemPointerData, i16, i16, i8, [0 x i8] }
%union.anon = type { %struct.HeapTupleFields }
%struct.HeapTupleFields = type { i32, i32, %union.anon.0 }
%union.anon.0 = type { i32 }

@.str.1 = private unnamed_addr constant [15 x i8] c"parse_coerce.c\00", align 1
@.str.43 = private unnamed_addr constant [36 x i8] c"cache lookup failed for function %u\00", align 1
@__func__.build_coercion_expression = private unnamed_addr constant [26 x i8] c"build_coercion_expression\00", align 1
@.str.44 = private unnamed_addr constant [48 x i8] c"failed to coerce array element type as expected\00", align 1
@.str.45 = private unnamed_addr constant [53 x i8] c"unsupported pathtype %d in build_coercion_expression\00", align 1

; Function Attrs: inlinehint nounwind uwtable
define internal ptr @newNode(i64 noundef %0, i32 noundef %1) #3 {
  %3 = alloca i64, align 8
  %4 = alloca i32, align 4
  %5 = alloca ptr, align 8
  store i64 %0, ptr %3, align 8
  store i32 %1, ptr %4, align 4
  call void @llvm.lifetime.start.p0(i64 8, ptr %5) #6
  %6 = load i64, ptr %3, align 8
  %7 = call ptr @palloc0(i64 noundef %6)
  store ptr %7, ptr %5, align 8
  %8 = load i32, ptr %4, align 4
  %9 = load ptr, ptr %5, align 8
  %10 = getelementptr inbounds nuw %struct.Node, ptr %9, i32 0, i32 0
  store i32 %8, ptr %10, align 4
  %11 = load ptr, ptr %5, align 8
  call void @llvm.lifetime.end.p0(i64 8, ptr %5) #6
  ret ptr %11
}

; Function Attrs: inlinehint nounwind uwtable
define internal i64 @BoolGetDatum(i1 noundef zeroext %0) #3 {
  %2 = alloca i8, align 1
  %3 = zext i1 %0 to i8
  store i8 %3, ptr %2, align 1
  %4 = load i8, ptr %2, align 1, !range !7, !noundef !8
  %5 = trunc i8 %4 to i1
  %6 = select i1 %5, i32 1, i32 0
  %7 = sext i32 %6 to i64
  ret i64 %7
}

; Function Attrs: inlinehint nounwind uwtable
define internal i64 @Int32GetDatum(i32 noundef %0) #3 {
  %2 = alloca i32, align 4
  store i32 %0, ptr %2, align 4
  %3 = load i32, ptr %2, align 4
  %4 = sext i32 %3 to i64
  ret i64 %4
}

; Function Attrs: inlinehint nounwind uwtable
define internal ptr @GETSTRUCT(ptr noundef %0) #3 {
  %2 = alloca ptr, align 8
  store ptr %0, ptr %2, align 8
  %3 = load ptr, ptr %2, align 8
  %4 = getelementptr inbounds nuw %struct.HeapTupleData, ptr %3, i32 0, i32 3
  %5 = load ptr, ptr %4, align 8
  %6 = load ptr, ptr %2, align 8
  %7 = getelementptr inbounds nuw %struct.HeapTupleData, ptr %6, i32 0, i32 3
  %8 = load ptr, ptr %7, align 8
  %9 = getelementptr inbounds nuw %struct.HeapTupleHeaderData, ptr %8, i32 0, i32 4
  %10 = load i8, ptr %9, align 2
  %11 = zext i8 %10 to i32
  %12 = sext i32 %11 to i64
  %13 = getelementptr inbounds i8, ptr %5, i64 %12
  ret ptr %13
}

; Function Attrs: inlinehint nounwind uwtable
define internal i64 @ObjectIdGetDatum(i32 noundef %0) #3 {
  %2 = alloca i32, align 4
  store i32 %0, ptr %2, align 4
  %3 = load i32, ptr %2, align 4
  %4 = zext i32 %3 to i64
  ret i64 %4
}

; Function Attrs: nounwind uwtable
define internal ptr @build_coercion_expression(ptr noundef %0, i32 noundef %1, i32 noundef %2, i32 noundef %3, i32 noundef %4, i32 noundef %5, i32 noundef %6, i32 noundef %7) #0 {
  %9 = alloca ptr, align 8
  %10 = alloca ptr, align 8
  %11 = alloca i32, align 4
  %12 = alloca i32, align 4
  %13 = alloca i32, align 4
  %14 = alloca i32, align 4
  %15 = alloca i32, align 4
  %16 = alloca i32, align 4
  %17 = alloca i32, align 4
  %18 = alloca i32, align 4
  %19 = alloca ptr, align 8
  %20 = alloca ptr, align 8
  %21 = alloca ptr, align 8
  %22 = alloca ptr, align 8
  %23 = alloca ptr, align 8
  %24 = alloca %union.ListCell, align 8
  %25 = alloca i32, align 4
  %26 = alloca ptr, align 8
  %27 = alloca ptr, align 8
  %28 = alloca i32, align 4
  %29 = alloca i32, align 4
  %30 = alloca i32, align 4
  %31 = alloca ptr, align 8
  %32 = alloca ptr, align 8
  store ptr %0, ptr %10, align 8
  store i32 %1, ptr %11, align 4
  store i32 %2, ptr %12, align 4
  store i32 %3, ptr %13, align 4
  store i32 %4, ptr %14, align 4
  store i32 %5, ptr %15, align 4
  store i32 %6, ptr %16, align 4
  store i32 %7, ptr %17, align 4
  call void @llvm.lifetime.start.p0(i64 4, ptr %18) #6
  store i32 0, ptr %18, align 4
  %33 = load i32, ptr %12, align 4
  %34 = icmp ne i32 %33, 0
  br i1 %34, label %35, label %61

35:                                               ; preds = %8
  call void @llvm.lifetime.start.p0(i64 8, ptr %19) #6
  call void @llvm.lifetime.start.p0(i64 8, ptr %20) #6
  %36 = load i32, ptr %12, align 4
  %37 = call i64 @ObjectIdGetDatum(i32 noundef %36)
  %38 = call ptr @SearchSysCache1(i32 noundef 47, i64 noundef %37)
  store ptr %38, ptr %19, align 8
  %39 = load ptr, ptr %19, align 8
  %40 = icmp ne ptr %39, null
  br i1 %40, label %53, label %41

41:                                               ; preds = %35
  br label %42

42:                                               ; preds = %41
  br i1 true, label %43, label %45

43:                                               ; preds = %42
  %44 = call zeroext i1 @errstart_cold(i32 noundef 21, ptr noundef null) #7
  br i1 %44, label %47, label %50

45:                                               ; preds = %42
  %46 = call zeroext i1 @errstart(i32 noundef 21, ptr noundef null)
  br i1 %46, label %47, label %50

47:                                               ; preds = %45, %43
  %48 = load i32, ptr %12, align 4
  %49 = call i32 (ptr, ...) @errmsg_internal(ptr noundef @.str.43, i32 noundef %48)
  call void @errfinish(ptr noundef @.str.1, i32 noundef 853, ptr noundef @__func__.build_coercion_expression)
  br label %50

50:                                               ; preds = %47, %45, %43
  unreachable

51:                                               ; No predecessors!
  br label %52

52:                                               ; preds = %51
  br label %53

53:                                               ; preds = %52, %35
  %54 = load ptr, ptr %19, align 8
  %55 = call ptr @GETSTRUCT(ptr noundef %54)
  store ptr %55, ptr %20, align 8
  %56 = load ptr, ptr %20, align 8
  %57 = getelementptr inbounds nuw %struct.FormData_pg_proc, ptr %56, i32 0, i32 16
  %58 = load i16, ptr %57, align 4
  %59 = sext i16 %58 to i32
  store i32 %59, ptr %18, align 4
  %60 = load ptr, ptr %19, align 8
  call void @ReleaseSysCache(ptr noundef %60)
  call void @llvm.lifetime.end.p0(i64 8, ptr %20) #6
  call void @llvm.lifetime.end.p0(i64 8, ptr %19) #6
  br label %61

61:                                               ; preds = %53, %8
  %62 = load i32, ptr %11, align 4
  %63 = icmp eq i32 %62, 1
  br i1 %63, label %64, label %99

64:                                               ; preds = %61
  call void @llvm.lifetime.start.p0(i64 8, ptr %21) #6
  call void @llvm.lifetime.start.p0(i64 8, ptr %22) #6
  call void @llvm.lifetime.start.p0(i64 8, ptr %23) #6
  %65 = load ptr, ptr %10, align 8
  store ptr %65, ptr %24, align 8
  %66 = getelementptr inbounds nuw %union.ListCell, ptr %24, i32 0, i32 0
  %67 = load ptr, ptr %66, align 8
  %68 = call ptr @list_make1_impl(i32 noundef 1, ptr %67)
  store ptr %68, ptr %22, align 8
  %69 = load i32, ptr %18, align 4
  %70 = icmp sge i32 %69, 2
  br i1 %70, label %71, label %78

71:                                               ; preds = %64
  %72 = load i32, ptr %14, align 4
  %73 = call i64 @Int32GetDatum(i32 noundef %72)
  %74 = call ptr @makeConst(i32 noundef 23, i32 noundef -1, i32 noundef 0, i32 noundef 4, i64 noundef %73, i1 noundef zeroext false, i1 noundef zeroext true)
  store ptr %74, ptr %23, align 8
  %75 = load ptr, ptr %22, align 8
  %76 = load ptr, ptr %23, align 8
  %77 = call ptr @lappend(ptr noundef %75, ptr noundef %76)
  store ptr %77, ptr %22, align 8
  br label %78

78:                                               ; preds = %71, %64
  %79 = load i32, ptr %18, align 4
  %80 = icmp eq i32 %79, 3
  br i1 %80, label %81, label %89

81:                                               ; preds = %78
  %82 = load i32, ptr %15, align 4
  %83 = icmp eq i32 %82, 3
  %84 = call i64 @BoolGetDatum(i1 noundef zeroext %83)
  %85 = call ptr @makeConst(i32 noundef 16, i32 noundef -1, i32 noundef 0, i32 noundef 1, i64 noundef %84, i1 noundef zeroext false, i1 noundef zeroext true)
  store ptr %85, ptr %23, align 8
  %86 = load ptr, ptr %22, align 8
  %87 = load ptr, ptr %23, align 8
  %88 = call ptr @lappend(ptr noundef %86, ptr noundef %87)
  store ptr %88, ptr %22, align 8
  br label %89

89:                                               ; preds = %81, %78
  %90 = load i32, ptr %12, align 4
  %91 = load i32, ptr %13, align 4
  %92 = load ptr, ptr %22, align 8
  %93 = load i32, ptr %16, align 4
  %94 = call ptr @makeFuncExpr(i32 noundef %90, i32 noundef %91, ptr noundef %92, i32 noundef 0, i32 noundef 0, i32 noundef %93)
  store ptr %94, ptr %21, align 8
  %95 = load i32, ptr %17, align 4
  %96 = load ptr, ptr %21, align 8
  %97 = getelementptr inbounds nuw %struct.FuncExpr, ptr %96, i32 0, i32 9
  store i32 %95, ptr %97, align 8
  %98 = load ptr, ptr %21, align 8
  store ptr %98, ptr %9, align 8
  store i32 1, ptr %25, align 4
  call void @llvm.lifetime.end.p0(i64 8, ptr %23) #6
  call void @llvm.lifetime.end.p0(i64 8, ptr %22) #6
  call void @llvm.lifetime.end.p0(i64 8, ptr %21) #6
  br label %195

99:                                               ; preds = %61
  %100 = load i32, ptr %11, align 4
  %101 = icmp eq i32 %100, 3
  br i1 %101, label %102, label %165

102:                                              ; preds = %99
  call void @llvm.lifetime.start.p0(i64 8, ptr %26) #6
  %103 = call ptr @newNode(i64 noundef 48, i32 noundef 29)
  store ptr %103, ptr %26, align 8
  call void @llvm.lifetime.start.p0(i64 8, ptr %27) #6
  %104 = call ptr @newNode(i64 noundef 16, i32 noundef 34)
  store ptr %104, ptr %27, align 8
  call void @llvm.lifetime.start.p0(i64 4, ptr %28) #6
  call void @llvm.lifetime.start.p0(i64 4, ptr %29) #6
  call void @llvm.lifetime.start.p0(i64 4, ptr %30) #6
  call void @llvm.lifetime.start.p0(i64 8, ptr %31) #6
  %105 = load ptr, ptr %10, align 8
  %106 = call i32 @exprTypmod(ptr noundef %105)
  store i32 %106, ptr %29, align 4
  %107 = load ptr, ptr %10, align 8
  %108 = call i32 @exprType(ptr noundef %107)
  %109 = call i32 @getBaseTypeAndTypmod(i32 noundef %108, ptr noundef %29)
  store i32 %109, ptr %28, align 4
  %110 = load i32, ptr %28, align 4
  %111 = call i32 @get_element_type(i32 noundef %110)
  %112 = load ptr, ptr %27, align 8
  %113 = getelementptr inbounds nuw %struct.CaseTestExpr, ptr %112, i32 0, i32 1
  store i32 %111, ptr %113, align 4
  %114 = load i32, ptr %29, align 4
  %115 = load ptr, ptr %27, align 8
  %116 = getelementptr inbounds nuw %struct.CaseTestExpr, ptr %115, i32 0, i32 2
  store i32 %114, ptr %116, align 4
  %117 = load ptr, ptr %27, align 8
  %118 = getelementptr inbounds nuw %struct.CaseTestExpr, ptr %117, i32 0, i32 3
  store i32 0, ptr %118, align 4
  %119 = load i32, ptr %13, align 4
  %120 = call i32 @get_element_type(i32 noundef %119)
  store i32 %120, ptr %30, align 4
  %121 = load ptr, ptr %27, align 8
  %122 = load ptr, ptr %27, align 8
  %123 = getelementptr inbounds nuw %struct.CaseTestExpr, ptr %122, i32 0, i32 1
  %124 = load i32, ptr %123, align 4
  %125 = load i32, ptr %30, align 4
  %126 = load i32, ptr %14, align 4
  %127 = load i32, ptr %15, align 4
  %128 = load i32, ptr %16, align 4
  %129 = load i32, ptr %17, align 4
  %130 = call ptr @coerce_to_target_type(ptr noundef null, ptr noundef %121, i32 noundef %124, i32 noundef %125, i32 noundef %126, i32 noundef %127, i32 noundef %128, i32 noundef %129)
  store ptr %130, ptr %31, align 8
  %131 = load ptr, ptr %31, align 8
  %132 = icmp eq ptr %131, null
  br i1 %132, label %133, label %144

133:                                              ; preds = %102
  br label %134

134:                                              ; preds = %133
  br i1 true, label %135, label %137

135:                                              ; preds = %134
  %136 = call zeroext i1 @errstart_cold(i32 noundef 21, ptr noundef null) #7
  br i1 %136, label %139, label %141

137:                                              ; preds = %134
  %138 = call zeroext i1 @errstart(i32 noundef 21, ptr noundef null)
  br i1 %138, label %139, label %141

139:                                              ; preds = %137, %135
  %140 = call i32 (ptr, ...) @errmsg_internal(ptr noundef @.str.44)
  call void @errfinish(ptr noundef @.str.1, i32 noundef 961, ptr noundef @__func__.build_coercion_expression)
  br label %141

141:                                              ; preds = %139, %137, %135
  unreachable

142:                                              ; No predecessors!
  br label %143

143:                                              ; preds = %142
  br label %144

144:                                              ; preds = %143, %102
  %145 = load ptr, ptr %10, align 8
  %146 = load ptr, ptr %26, align 8
  %147 = getelementptr inbounds nuw %struct.ArrayCoerceExpr, ptr %146, i32 0, i32 1
  store ptr %145, ptr %147, align 8
  %148 = load ptr, ptr %31, align 8
  %149 = load ptr, ptr %26, align 8
  %150 = getelementptr inbounds nuw %struct.ArrayCoerceExpr, ptr %149, i32 0, i32 2
  store ptr %148, ptr %150, align 8
  %151 = load i32, ptr %13, align 4
  %152 = load ptr, ptr %26, align 8
  %153 = getelementptr inbounds nuw %struct.ArrayCoerceExpr, ptr %152, i32 0, i32 3
  store i32 %151, ptr %153, align 8
  %154 = load ptr, ptr %31, align 8
  %155 = call i32 @exprTypmod(ptr noundef %154)
  %156 = load ptr, ptr %26, align 8
  %157 = getelementptr inbounds nuw %struct.ArrayCoerceExpr, ptr %156, i32 0, i32 4
  store i32 %155, ptr %157, align 4
  %158 = load i32, ptr %16, align 4
  %159 = load ptr, ptr %26, align 8
  %160 = getelementptr inbounds nuw %struct.ArrayCoerceExpr, ptr %159, i32 0, i32 6
  store i32 %158, ptr %160, align 4
  %161 = load i32, ptr %17, align 4
  %162 = load ptr, ptr %26, align 8
  %163 = getelementptr inbounds nuw %struct.ArrayCoerceExpr, ptr %162, i32 0, i32 7
  store i32 %161, ptr %163, align 8
  %164 = load ptr, ptr %26, align 8
  store ptr %164, ptr %9, align 8
  store i32 1, ptr %25, align 4
  call void @llvm.lifetime.end.p0(i64 8, ptr %31) #6
  call void @llvm.lifetime.end.p0(i64 4, ptr %30) #6
  call void @llvm.lifetime.end.p0(i64 4, ptr %29) #6
  call void @llvm.lifetime.end.p0(i64 4, ptr %28) #6
  call void @llvm.lifetime.end.p0(i64 8, ptr %27) #6
  call void @llvm.lifetime.end.p0(i64 8, ptr %26) #6
  br label %195

165:                                              ; preds = %99
  %166 = load i32, ptr %11, align 4
  %167 = icmp eq i32 %166, 4
  br i1 %167, label %168, label %183

168:                                              ; preds = %165
  call void @llvm.lifetime.start.p0(i64 8, ptr %32) #6
  %169 = call ptr @newNode(i64 noundef 32, i32 noundef 28)
  store ptr %169, ptr %32, align 8
  %170 = load ptr, ptr %10, align 8
  %171 = load ptr, ptr %32, align 8
  %172 = getelementptr inbounds nuw %struct.CoerceViaIO, ptr %171, i32 0, i32 1
  store ptr %170, ptr %172, align 8
  %173 = load i32, ptr %13, align 4
  %174 = load ptr, ptr %32, align 8
  %175 = getelementptr inbounds nuw %struct.CoerceViaIO, ptr %174, i32 0, i32 2
  store i32 %173, ptr %175, align 8
  %176 = load i32, ptr %16, align 4
  %177 = load ptr, ptr %32, align 8
  %178 = getelementptr inbounds nuw %struct.CoerceViaIO, ptr %177, i32 0, i32 4
  store i32 %176, ptr %178, align 8
  %179 = load i32, ptr %17, align 4
  %180 = load ptr, ptr %32, align 8
  %181 = getelementptr inbounds nuw %struct.CoerceViaIO, ptr %180, i32 0, i32 5
  store i32 %179, ptr %181, align 4
  %182 = load ptr, ptr %32, align 8
  store ptr %182, ptr %9, align 8
  store i32 1, ptr %25, align 4
  call void @llvm.lifetime.end.p0(i64 8, ptr %32) #6
  br label %195

183:                                              ; preds = %165
  br label %184

184:                                              ; preds = %183
  br i1 true, label %185, label %187

185:                                              ; preds = %184
  %186 = call zeroext i1 @errstart_cold(i32 noundef 21, ptr noundef null) #7
  br i1 %186, label %189, label %192

187:                                              ; preds = %184
  %188 = call zeroext i1 @errstart(i32 noundef 21, ptr noundef null)
  br i1 %188, label %189, label %192

189:                                              ; preds = %187, %185
  %190 = load i32, ptr %11, align 4
  %191 = call i32 (ptr, ...) @errmsg_internal(ptr noundef @.str.45, i32 noundef %190)
  call void @errfinish(ptr noundef @.str.1, i32 noundef 996, ptr noundef @__func__.build_coercion_expression)
  br label %192

192:                                              ; preds = %189, %187, %185
  unreachable

193:                                              ; No predecessors!
  br label %194

194:                                              ; preds = %193
  store ptr null, ptr %9, align 8
  store i32 1, ptr %25, align 4
  br label %195

195:                                              ; preds = %194, %168, %144, %89
  call void @llvm.lifetime.end.p0(i64 4, ptr %18) #6
  %196 = load ptr, ptr %9, align 8
  ret ptr %196
}