; Function Attrs: nounwind uwtable
define internal fastcc ptr @build_coercion_expression(ptr noundef %0, i32 noundef range(i32 1, 0) %1, i32 noundef %2, i32 noundef %3, i32 noundef %4, i32 noundef %5, i32 noundef %6, i32 noundef %7) unnamed_addr #0 {
  %9 = alloca i32, align 4
  %.not = icmp eq i32 %2, 0
  br i1 %.not, label %25, label %10

10:                                               ; preds = %8
  %11 = zext i32 %2 to i64
  %12 = tail call ptr @SearchSysCache1(i32 noundef 47, i64 noundef %11) #5
  %.not70 = icmp eq ptr %12, null
  br i1 %.not70, label %13, label %16

13:                                               ; preds = %10
  %14 = tail call zeroext i1 @errstart_cold(i32 noundef 21, ptr noundef null) #6
  tail call void @llvm.assume(i1 %14)
  %15 = tail call i32 (ptr, ...) @errmsg_internal(ptr noundef nonnull @.str.43, i32 noundef %2) #5
  tail call void @errfinish(ptr noundef nonnull @.str.1, i32 noundef 853, ptr noundef nonnull @__func__.build_coercion_expression) #5
  unreachable

16:                                               ; preds = %10
  %17 = getelementptr i8, ptr %12, i64 16
  %.val = load ptr, ptr %17, align 8
  %18 = getelementptr inbounds nuw i8, ptr %.val, i64 22
  %19 = load i8, ptr %18, align 2
  %20 = zext i8 %19 to i64
  %21 = getelementptr inbounds nuw i8, ptr %.val, i64 %20
  %22 = getelementptr inbounds nuw i8, ptr %21, i64 104
  %23 = load i16, ptr %22, align 4
  %24 = sext i16 %23 to i32
  tail call void @ReleaseSysCache(ptr noundef nonnull %12) #5
  br label %25

25:                                               ; preds = %16, %8
  %.064 = phi i32 [ %24, %16 ], [ 0, %8 ]
  switch i32 %1, label %73 [
    i32 1, label %26
    i32 3, label %41
    i32 4, label %67
  ]

26:                                               ; preds = %25
  %27 = tail call ptr @list_make1_impl(i32 noundef 1, ptr %0) #5
  %28 = icmp sgt i32 %.064, 1
  br i1 %28, label %29, label %.thread

29:                                               ; preds = %26
  %30 = sext i32 %4 to i64
  %31 = tail call ptr @makeConst(i32 noundef 23, i32 noundef -1, i32 noundef 0, i32 noundef 4, i64 noundef %30, i1 noundef zeroext false, i1 noundef zeroext true) #5
  %32 = tail call ptr @lappend(ptr noundef %27, ptr noundef %31) #5
  %33 = icmp eq i32 %.064, 3
  br i1 %33, label %34, label %.thread

34:                                               ; preds = %29
  %35 = icmp eq i32 %5, 3
  %36 = zext i1 %35 to i64
  %37 = tail call ptr @makeConst(i32 noundef 16, i32 noundef -1, i32 noundef 0, i32 noundef 1, i64 noundef %36, i1 noundef zeroext false, i1 noundef zeroext true) #5
  %38 = tail call ptr @lappend(ptr noundef %32, ptr noundef %37) #5
  br label %.thread

.thread:                                          ; preds = %26, %34, %29
  %.1 = phi ptr [ %38, %34 ], [ %32, %29 ], [ %27, %26 ]
  %39 = tail call ptr @makeFuncExpr(i32 noundef %2, i32 noundef %3, ptr noundef %.1, i32 noundef 0, i32 noundef 0, i32 noundef %6) #5
  %40 = getelementptr inbounds nuw i8, ptr %39, i64 40
  store i32 %7, ptr %40, align 8
  br label %76

41:                                               ; preds = %25
  %42 = tail call noundef ptr @palloc0(i64 noundef 48) #5
  store i32 29, ptr %42, align 4
  %43 = tail call noundef ptr @palloc0(i64 noundef 16) #5
  store i32 34, ptr %43, align 4
  call void @llvm.lifetime.start.p0(i64 4, ptr nonnull %9) #5
  %44 = tail call i32 @exprTypmod(ptr noundef %0) #5
  store i32 %44, ptr %9, align 4
  %45 = tail call i32 @exprType(ptr noundef %0) #5
  %46 = call i32 @getBaseTypeAndTypmod(i32 noundef %45, ptr noundef nonnull %9) #5
  %47 = call i32 @get_element_type(i32 noundef %46) #5
  %48 = getelementptr inbounds nuw i8, ptr %43, i64 4
  store i32 %47, ptr %48, align 4
  %49 = load i32, ptr %9, align 4
  %50 = getelementptr inbounds nuw i8, ptr %43, i64 8
  store i32 %49, ptr %50, align 4
  %51 = getelementptr inbounds nuw i8, ptr %43, i64 12
  store i32 0, ptr %51, align 4
  %52 = call i32 @get_element_type(i32 noundef %3) #5
  %53 = load i32, ptr %48, align 4
  %54 = call ptr @coerce_to_target_type(ptr noundef null, ptr noundef nonnull %43, i32 noundef %53, i32 noundef %52, i32 noundef %4, i32 noundef %5, i32 noundef %6, i32 noundef %7)
  %55 = icmp eq ptr %54, null
  br i1 %55, label %56, label %59

56:                                               ; preds = %41
  %57 = call zeroext i1 @errstart_cold(i32 noundef 21, ptr noundef null) #6
  call void @llvm.assume(i1 %57)
  %58 = call i32 (ptr, ...) @errmsg_internal(ptr noundef nonnull @.str.44) #5
  call void @errfinish(ptr noundef nonnull @.str.1, i32 noundef 961, ptr noundef nonnull @__func__.build_coercion_expression) #5
  unreachable

59:                                               ; preds = %41
  %60 = getelementptr inbounds nuw i8, ptr %42, i64 8
  store ptr %0, ptr %60, align 8
  %61 = getelementptr inbounds nuw i8, ptr %42, i64 16
  store ptr %54, ptr %61, align 8
  %62 = getelementptr inbounds nuw i8, ptr %42, i64 24
  store i32 %3, ptr %62, align 8
  %63 = call i32 @exprTypmod(ptr noundef nonnull %54) #5
  %64 = getelementptr inbounds nuw i8, ptr %42, i64 28
  store i32 %63, ptr %64, align 4
  %65 = getelementptr inbounds nuw i8, ptr %42, i64 36
  store i32 %6, ptr %65, align 4
  %66 = getelementptr inbounds nuw i8, ptr %42, i64 40
  store i32 %7, ptr %66, align 8
  call void @llvm.lifetime.end.p0(i64 4, ptr nonnull %9) #5
  br label %76

67:                                               ; preds = %25
  %68 = tail call noundef ptr @palloc0(i64 noundef 32) #5
  store i32 28, ptr %68, align 4
  %69 = getelementptr inbounds nuw i8, ptr %68, i64 8
  store ptr %0, ptr %69, align 8
  %70 = getelementptr inbounds nuw i8, ptr %68, i64 16
  store i32 %3, ptr %70, align 8
  %71 = getelementptr inbounds nuw i8, ptr %68, i64 24
  store i32 %6, ptr %71, align 8
  %72 = getelementptr inbounds nuw i8, ptr %68, i64 28
  store i32 %7, ptr %72, align 4
  br label %76

73:                                               ; preds = %25
  %74 = tail call zeroext i1 @errstart_cold(i32 noundef 21, ptr noundef null) #6
  tail call void @llvm.assume(i1 %74)
  %75 = tail call i32 (ptr, ...) @errmsg_internal(ptr noundef nonnull @.str.45, i32 noundef %1) #5
  tail call void @errfinish(ptr noundef nonnull @.str.1, i32 noundef 996, ptr noundef nonnull @__func__.build_coercion_expression) #5
  unreachable

76:                                               ; preds = %67, %59, %.thread
  %.0 = phi ptr [ %39, %.thread ], [ %42, %59 ], [ %68, %67 ]
  ret ptr %.0
}